target datalayout = "e-m:e-p270:32:32-p271:32:32-p272:64:64-i64:64-i128:128-f80:128-n8:16:32:64-S128"
target triple = "x86_64-pc-linux-gnu"

%struct.pmix_cpuset_t = type { ptr, ptr }

@.str = private unnamed_addr constant [6 x i8] c"hwloc\00", align 1

; Function Attrs: nounwind uwtable
define void @pmix_hwloc_destruct_cpuset(ptr noundef %0) #0 {
  %2 = alloca ptr, align 8
  store ptr %0, ptr %2, align 8, !tbaa !3
  %3 = load ptr, ptr %2, align 8, !tbaa !3
  %4 = icmp eq ptr null, %3
  br i1 %4, label %16, label %5

5:                                                ; preds = %1
  %6 = load ptr, ptr %2, align 8, !tbaa !3
  %7 = getelementptr inbounds nuw %struct.pmix_cpuset_t, ptr %6, i32 0, i32 0
  %8 = load ptr, ptr %7, align 8, !tbaa !19
  %9 = icmp eq ptr null, %8
  br i1 %9, label %16, label %10

10:                                               ; preds = %5
  %11 = load ptr, ptr %2, align 8, !tbaa !3
  %12 = getelementptr inbounds nuw %struct.pmix_cpuset_t, ptr %11, i32 0, i32 0
  %13 = load ptr, ptr %12, align 8, !tbaa !19
  %14 = call i32 @strncasecmp(ptr noundef %13, ptr noundef @.str, i64 noundef 5) #9
  %15 = icmp ne i32 0, %14
  br i1 %15, label %16, label %17

16:                                               ; preds = %10, %5, %1
  br label %34

17:                                               ; preds = %10
  %18 = load ptr, ptr %2, align 8, !tbaa !3
  %19 = getelementptr inbounds nuw %struct.pmix_cpuset_t, ptr %18, i32 0, i32 1
  %20 = load ptr, ptr %19, align 8, !tbaa !21
  %21 = icmp ne ptr null, %20
  br i1 %21, label %22, label %28

22:                                               ; preds = %17
  %23 = load ptr, ptr %2, align 8, !tbaa !3
  %24 = getelementptr inbounds nuw %struct.pmix_cpuset_t, ptr %23, i32 0, i32 1
  %25 = load ptr, ptr %24, align 8, !tbaa !21
  call void @hwloc_bitmap_free(ptr noundef %25)
  %26 = load ptr, ptr %2, align 8, !tbaa !3
  %27 = getelementptr inbounds nuw %struct.pmix_cpuset_t, ptr %26, i32 0, i32 1
  store ptr null, ptr %27, align 8, !tbaa !21
  br label %28

28:                                               ; preds = %22, %17
  %29 = load ptr, ptr %2, align 8, !tbaa !3
  %30 = getelementptr inbounds nuw %struct.pmix_cpuset_t, ptr %29, i32 0, i32 0
  %31 = load ptr, ptr %30, align 8, !tbaa !19
  call void @free(ptr noundef %31) #8
  %32 = load ptr, ptr %2, align 8, !tbaa !3
  %33 = getelementptr inbounds nuw %struct.pmix_cpuset_t, ptr %32, i32 0, i32 0
  store ptr null, ptr %33, align 8, !tbaa !19
  br label %34

34:                                               ; preds = %28, %16
  ret void
}

; Function Attrs: nounwind uwtable
define void @pmix_hwloc_release_cpuset(ptr noundef %0, i64 noundef %1) #0 {
  %3 = alloca ptr, align 8
  %4 = alloca i64, align 8
  %5 = alloca i64, align 8
  %6 = alloca i32, align 4
  store ptr %0, ptr %3, align 8, !tbaa !3
  store i64 %1, ptr %4, align 8, !tbaa !27
  call void @llvm.lifetime.start.p0(i64 8, ptr %5) #8
  %7 = load ptr, ptr %3, align 8, !tbaa !3
  %8 = icmp eq ptr null, %7
  br i1 %8, label %9, label %10

9:                                                ; preds = %2
  store i32 1, ptr %6, align 4
  br label %24

10:                                               ; preds = %2
  store i64 0, ptr %5, align 8, !tbaa !27
  br label %11

11:                                               ; preds = %19, %10
  %12 = load i64, ptr %5, align 8, !tbaa !27
  %13 = load i64, ptr %4, align 8, !tbaa !27
  %14 = icmp ult i64 %12, %13
  br i1 %14, label %15, label %22

15:                                               ; preds = %11
  %16 = load ptr, ptr %3, align 8, !tbaa !3
  %17 = load i64, ptr %5, align 8, !tbaa !27
  %18 = getelementptr inbounds nuw %struct.pmix_cpuset_t, ptr %16, i64 %17
  call void @pmix_hwloc_destruct_cpuset(ptr noundef %18)
  br label %19

19:                                               ; preds = %15
  %20 = load i64, ptr %5, align 8, !tbaa !27
  %21 = add i64 %20, 1
  store i64 %21, ptr %5, align 8, !tbaa !27
  br label %11, !llvm.loop !29

22:                                               ; preds = %11
  %23 = load ptr, ptr %3, align 8, !tbaa !3
  call void @free(ptr noundef %23) #8
  store i32 0, ptr %6, align 4
  br label %24

24:                                               ; preds = %22, %9
  call void @llvm.lifetime.end.p0(i64 8, ptr %5) #8
  %25 = load i32, ptr %6, align 4
  switch i32 %25, label %27 [
    i32 0, label %26
    i32 1, label %26
  ]

26:                                               ; preds = %24, %24
  ret void

27:                                               ; preds = %24
  unreachable
}

; Function Attrs: nounwind uwtable
define void @pmix_ploc_base_release_cpuset(ptr noundef %0, i64 noundef %1) #0 {
  %3 = alloca ptr, align 8
  %4 = alloca i64, align 8
  store ptr %0, ptr %3, align 8, !tbaa !3
  store i64 %1, ptr %4, align 8, !tbaa !27
  %5 = load ptr, ptr %3, align 8, !tbaa !3
  %6 = load i64, ptr %4, align 8, !tbaa !27
  call void @pmix_hwloc_release_cpuset(ptr noundef %5, i64 noundef %6)
  ret void
}