; Function Attrs: nounwind uwtable
define void @pmix_ploc_base_release_cpuset(ptr noundef captures(address_is_null) %0, i64 noundef %1) local_unnamed_addr #0 {
  %3 = icmp eq ptr %0, null
  br i1 %3, label %pmix_hwloc_release_cpuset.exit, label %.preheader.i

.preheader.i:                                     ; preds = %2
  %.not.i = icmp eq i64 %1, 0
  br i1 %.not.i, label %._crit_edge.i, label %.lr.ph.i

.lr.ph.i:                                         ; preds = %.preheader.i, %pmix_hwloc_destruct_cpuset.exit.i
  %.07.i = phi i64 [ %15, %pmix_hwloc_destruct_cpuset.exit.i ], [ 0, %.preheader.i ]
  %4 = getelementptr inbounds nuw %struct.pmix_cpuset_t, ptr %0, i64 %.07.i
  %5 = load ptr, ptr %4, align 8, !tbaa !21
  %6 = icmp eq ptr %5, null
  br i1 %6, label %pmix_hwloc_destruct_cpuset.exit.i, label %7

7:                                                ; preds = %.lr.ph.i
  %8 = tail call i32 @strncasecmp(ptr noundef nonnull %5, ptr noundef nonnull @.str, i64 noundef 5) #8
  %.not.i.i = icmp eq i32 %8, 0
  br i1 %.not.i.i, label %9, label %pmix_hwloc_destruct_cpuset.exit.i

9:                                                ; preds = %7
  %10 = getelementptr inbounds nuw i8, ptr %4, i64 8
  %11 = load ptr, ptr %10, align 8, !tbaa !23
  %.not10.i.i = icmp eq ptr %11, null
  br i1 %.not10.i.i, label %13, label %12

12:                                               ; preds = %9
  tail call void @hwloc_bitmap_free(ptr noundef nonnull %11) #7
  store ptr null, ptr %10, align 8, !tbaa !23
  %.pre.i.i = load ptr, ptr %4, align 8, !tbaa !21
  br label %13

13:                                               ; preds = %12, %9
  %14 = phi ptr [ %.pre.i.i, %12 ], [ %5, %9 ]
  tail call void @free(ptr noundef %14) #7
  store ptr null, ptr %4, align 8, !tbaa !21
  br label %pmix_hwloc_destruct_cpuset.exit.i

pmix_hwloc_destruct_cpuset.exit.i:                ; preds = %13, %7, %.lr.ph.i
  %15 = add nuw i64 %.07.i, 1
  %exitcond.not.i = icmp eq i64 %15, %1
  br i1 %exitcond.not.i, label %._crit_edge.i, label %.lr.ph.i, !llvm.loop !26

._crit_edge.i:                                    ; preds = %pmix_hwloc_destruct_cpuset.exit.i, %.preheader.i
  tail call void @free(ptr noundef nonnull %0) #7
  br label %pmix_hwloc_release_cpuset.exit

pmix_hwloc_release_cpuset.exit:                   ; preds = %2, %._crit_edge.i
  ret void
}